target datalayout = "e-m:e-p270:32:32-p271:32:32-p272:64:64-i64:64-i128:128-f80:128-n8:16:32:64-S128"
target triple = "x86_64-unknown-linux-gnu"

%"class.std::set" = type { %"class.std::_Rb_tree" }
%"class.std::_Rb_tree" = type { %"struct.std::_Rb_tree<std::__cxx11::basic_string<char>, std::__cxx11::basic_string<char>, std::_Identity<std::__cxx11::basic_string<char>>, re2::Prefilter::LengthThenLex>::_Rb_tree_impl" }
%"struct.std::_Rb_tree<std::__cxx11::basic_string<char>, std::__cxx11::basic_string<char>, std::_Identity<std::__cxx11::basic_string<char>>, re2::Prefilter::LengthThenLex>::_Rb_tree_impl" = type { %"struct.std::_Rb_tree_key_compare", %"struct.std::_Rb_tree_header" }
%"struct.std::_Rb_tree_key_compare" = type { %"struct.re2::Prefilter::LengthThenLex" }
%"struct.re2::Prefilter::LengthThenLex" = type { i8 }
%"struct.std::_Rb_tree_header" = type { %"struct.std::_Rb_tree_node_base", i64 }
%"struct.std::_Rb_tree_node_base" = type { i32, ptr, ptr, ptr }
%"class.re2::Prefilter::Info" = type { %"class.std::set", i8, ptr }

; Function Attrs: mustprogress uwtable
define noundef ptr @_ZN3re29Prefilter4Info9TakeMatchEv(ptr noundef nonnull align 8 dereferenceable(64) %this) #0 align 2 {
entry:
  %this.addr = alloca ptr, align 8
  %m = alloca ptr, align 8
  store ptr %this, ptr %this.addr, align 8
  %this1 = load ptr, ptr %this.addr, align 8
  %is_exact_ = getelementptr inbounds %"class.re2::Prefilter::Info", ptr %this1, i32 0, i32 1
  %0 = load i8, ptr %is_exact_, align 8
  %tobool = trunc i8 %0 to i1
  br i1 %tobool, label %if.then, label %if.end

if.then:                                          ; preds = %entry
  %exact_ = getelementptr inbounds %"class.re2::Prefilter::Info", ptr %this1, i32 0, i32 0
  %call = call noundef ptr @_ZN3re29Prefilter9OrStringsEPSt3setINSt7__cxx1112basic_stringIcSt11char_traitsIcESaIcEEENS0_13LengthThenLexESaIS7_EE(ptr noundef %exact_)
  %match_ = getelementptr inbounds %"class.re2::Prefilter::Info", ptr %this1, i32 0, i32 2
  store ptr %call, ptr %match_, align 8
  %is_exact_2 = getelementptr inbounds %"class.re2::Prefilter::Info", ptr %this1, i32 0, i32 1
  store i8 0, ptr %is_exact_2, align 8
  br label %if.end

if.end:                                           ; preds = %if.then, %entry
  %match_3 = getelementptr inbounds %"class.re2::Prefilter::Info", ptr %this1, i32 0, i32 2
  %1 = load ptr, ptr %match_3, align 8
  store ptr %1, ptr %m, align 8
  %match_4 = getelementptr inbounds %"class.re2::Prefilter::Info", ptr %this1, i32 0, i32 2
  store ptr null, ptr %match_4, align 8
  %2 = load ptr, ptr %m, align 8
  ret ptr %2
}