; Function Attrs: mustprogress uwtable
define noundef ptr @_ZN3re29Prefilter4Info9TakeMatchEv(ptr noundef nonnull align 8 dereferenceable(64) %this) local_unnamed_addr #0 align 2 {
entry:
  %is_exact_ = getelementptr inbounds i8, ptr %this, i64 48
  %0 = load i8, ptr %is_exact_, align 8
  %1 = and i8 %0, 1
  %tobool.not = icmp eq i8 %1, 0
  br i1 %tobool.not, label %entry.if.end_crit_edge, label %if.then

entry.if.end_crit_edge:                           ; preds = %entry
  %match_3.phi.trans.insert = getelementptr inbounds i8, ptr %this, i64 56
  %.pre = load ptr, ptr %match_3.phi.trans.insert, align 8
  br label %if.end

if.then:                                          ; preds = %entry
  %call = tail call noundef ptr @_ZN3re29Prefilter9OrStringsEPSt3setINSt7__cxx1112basic_stringIcSt11char_traitsIcESaIcEEENS0_13LengthThenLexESaIS7_EE(ptr noundef nonnull %this)
  store i8 0, ptr %is_exact_, align 8
  br label %if.end

if.end:                                           ; preds = %entry.if.end_crit_edge, %if.then
  %2 = phi ptr [ %.pre, %entry.if.end_crit_edge ], [ %call, %if.then ]
  %match_3 = getelementptr inbounds i8, ptr %this, i64 56
  store ptr null, ptr %match_3, align 8
  ret ptr %2
}